	.file	"vtable_core_dump.cpp"
	.text
.Ltext0:
	.section	.text._ZnwmPv,"axG",@progbits,_ZnwmPv,comdat
	.weak	_ZnwmPv
	.type	_ZnwmPv, @function
_ZnwmPv:
.LFB38:
	.file 1 "/opt/rh/devtoolset-8/root/usr/include/c++/8/new"
	.loc 1 169 1
	.cfi_startproc
	pushq	%rbp
	.cfi_def_cfa_offset 16
	.cfi_offset 6, -16
	movq	%rsp, %rbp
	.cfi_def_cfa_register 6
	movq	%rdi, -8(%rbp)
	movq	%rsi, -16(%rbp)
	.loc 1 169 10
	movq	-16(%rbp), %rax
	.loc 1 169 15
	popq	%rbp
	.cfi_def_cfa 7, 8
	ret
	.cfi_endproc
.LFE38:
	.size	_ZnwmPv, .-_ZnwmPv
	.section	.text._ZdlPvS_,"axG",@progbits,_ZdlPvS_,comdat
	.weak	_ZdlPvS_
	.type	_ZdlPvS_, @function
_ZdlPvS_:
.LFB40:
	.loc 1 174 67
	.cfi_startproc
	pushq	%rbp
	.cfi_def_cfa_offset 16
	.cfi_offset 6, -16
	movq	%rsp, %rbp
	.cfi_def_cfa_register 6
	movq	%rdi, -8(%rbp)
	movq	%rsi, -16(%rbp)
	.loc 1 174 69
	nop
	popq	%rbp
	.cfi_def_cfa 7, 8
	ret
	.cfi_endproc
.LFE40:
	.size	_ZdlPvS_, .-_ZdlPvS_
	.local	_ZStL8__ioinit
	.comm	_ZStL8__ioinit,1,1
	.section	.rodata
.LC0:
	.string	"?"
	.section	.text._ZN6MyImpl4TestEv,"axG",@progbits,_ZN6MyImpl4TestEv,comdat
	.align 2
	.weak	_ZN6MyImpl4TestEv
	.type	_ZN6MyImpl4TestEv, @function
_ZN6MyImpl4TestEv:
.LFB1814:
	.file 2 "./vtable_core_dump.cpp"
	.loc 2 26 8
	.cfi_startproc
	pushq	%rbp
	.cfi_def_cfa_offset 16
	.cfi_offset 6, -16
	movq	%rsp, %rbp
	.cfi_def_cfa_register 6
	subq	$16, %rsp
	movq	%rdi, -8(%rbp)
	.loc 2 27 18
	movl	$.LC0, %esi
	movl	$_ZSt4cout, %edi
	call	_ZStlsISt11char_traitsIcEERSt13basic_ostreamIcT_ES5_PKc
	.loc 2 28 3
	nop
	leave
	.cfi_def_cfa 7, 8
	ret
	.cfi_endproc
.LFE1814:
	.size	_ZN6MyImpl4TestEv, .-_ZN6MyImpl4TestEv
	.section	.text._ZN6MyImpl5Test2Ev,"axG",@progbits,_ZN6MyImpl5Test2Ev,comdat
	.align 2
	.weak	_ZN6MyImpl5Test2Ev
	.type	_ZN6MyImpl5Test2Ev, @function
_ZN6MyImpl5Test2Ev:
.LFB1815:
	.loc 2 29 16
	.cfi_startproc
	pushq	%rbp
	.cfi_def_cfa_offset 16
	.cfi_offset 6, -16
	movq	%rsp, %rbp
	.cfi_def_cfa_register 6
	subq	$16, %rsp
	movq	%rdi, -8(%rbp)
	.loc 2 30 18
	movl	$.LC0, %esi
	movl	$_ZSt4cout, %edi
	call	_ZStlsISt11char_traitsIcEERSt13basic_ostreamIcT_ES5_PKc
	.loc 2 31 3
	nop
	leave
	.cfi_def_cfa 7, 8
	ret
	.cfi_endproc
.LFE1815:
	.size	_ZN6MyImpl5Test2Ev, .-_ZN6MyImpl5Test2Ev
	.section	.text._ZN8ExternalI6MyImpliEC2Ev,"axG",@progbits,_ZN8ExternalI6MyImpliEC5Ev,comdat
	.align 2
	.weak	_ZN8ExternalI6MyImpliEC2Ev
	.type	_ZN8ExternalI6MyImpliEC2Ev, @function
_ZN8ExternalI6MyImpliEC2Ev:
.LFB1819:
	.loc 2 20 7
	.cfi_startproc
	pushq	%rbp
	.cfi_def_cfa_offset 16
	.cfi_offset 6, -16
	movq	%rsp, %rbp
	.cfi_def_cfa_register 6
	subq	$16, %rsp
	movq	%rdi, -8(%rbp)
.LBB2:
	.loc 2 20 7
	movq	-8(%rbp), %rax
	movq	%rax, %rdi
	call	_ZN8FallBackI6MyImplEC2Ev
.LBE2:
	nop
	leave
	.cfi_def_cfa 7, 8
	ret
	.cfi_endproc
.LFE1819:
	.size	_ZN8ExternalI6MyImpliEC2Ev, .-_ZN8ExternalI6MyImpliEC2Ev
	.weak	_ZN8ExternalI6MyImpliEC1Ev
	.set	_ZN8ExternalI6MyImpliEC1Ev,_ZN8ExternalI6MyImpliEC2Ev
	.section	.text._ZN6MyImplC2Ev,"axG",@progbits,_ZN6MyImplC5Ev,comdat
	.align 2
	.weak	_ZN6MyImplC2Ev
	.type	_ZN6MyImplC2Ev, @function
_ZN6MyImplC2Ev:
.LFB1821:
	.loc 2 24 7
	.cfi_startproc
	pushq	%rbp
	.cfi_def_cfa_offset 16
	.cfi_offset 6, -16
	movq	%rsp, %rbp
	.cfi_def_cfa_register 6
	subq	$16, %rsp
	movq	%rdi, -8(%rbp)
.LBB3:
	.loc 2 24 7
	movq	-8(%rbp), %rax
	addq	$8, %rax
	movq	%rax, %rdi
	call	_ZN8ExternalI6MyImpliEC2Ev
	movl	$_ZTV6MyImpl+16, %edx
	movq	-8(%rbp), %rax
	movq	%rdx, (%rax)
.LBE3:
	nop
	leave
	.cfi_def_cfa 7, 8
	ret
	.cfi_endproc
.LFE1821:
	.size	_ZN6MyImplC2Ev, .-_ZN6MyImplC2Ev
	.weak	_ZN6MyImplC1Ev
	.set	_ZN6MyImplC1Ev,_ZN6MyImplC2Ev
	.section	.rodata
.LC1:
	.string	" "
	.text
	.globl	_Z3Usev
	.type	_Z3Usev, @function
_Z3Usev:
.LFB1816:
	.loc 2 34 12
	.cfi_startproc
	pushq	%rbp
	.cfi_def_cfa_offset 16
	.cfi_offset 6, -16
	movq	%rsp, %rbp
	.cfi_def_cfa_register 6
	pushq	%rbx
	subq	$24, %rsp
	.cfi_offset 3, -24
	.loc 2 35 29
	movl	$16, %edi
	call	malloc
	.loc 2 35 54
	movq	%rax, %rsi
	movl	$16, %edi
	call	_ZnwmPv
	movq	%rax, %rbx
	movq	$0, (%rbx)
	movq	$0, 8(%rbx)
	movq	%rbx, %rdi
	call	_ZN6MyImplC1Ev
	testq	%rbx, %rbx
	je	.L9
	.loc 2 35 54 is_stmt 0 discriminator 1
	leaq	8(%rbx), %rax
	jmp	.L10
.L9:
	.loc 2 35 54 discriminator 2
	movl	$0, %eax
.L10:
	.loc 2 35 54 discriminator 4
	movq	%rax, -24(%rbp)
	.loc 2 36 16 is_stmt 1 discriminator 4
	movq	-24(%rbp), %rax
	movq	%rax, %rsi
	movl	$_ZSt4cout, %edi
	call	_ZNSolsEPKv
	.loc 2 36 27 discriminator 4
	movl	$.LC1, %esi
	movq	%rax, %rdi
	call	_ZStlsISt11char_traitsIcEERSt13basic_ostreamIcT_ES5_PKc
	.loc 2 36 47 discriminator 4
	movl	$16, %esi
	movq	%rax, %rdi
	call	_ZNSolsEm
	.loc 2 36 52 discriminator 4
	movl	$.LC1, %esi
	movq	%rax, %rdi
	call	_ZStlsISt11char_traitsIcEERSt13basic_ostreamIcT_ES5_PKc
	.loc 2 36 70 discriminator 4
	movl	$8, %esi
	movq	%rax, %rdi
	call	_ZNSolsEm
	.loc 2 36 80 discriminator 4
	movl	$_ZSt4endlIcSt11char_traitsIcEERSt13basic_ostreamIT_T0_ES6_, %esi
	movq	%rax, %rdi
	call	_ZNSolsEPFRSoS_E
	.loc 2 37 22 discriminator 4
	movq	-24(%rbp), %rax
	movq	(%rax), %rax
	.loc 2 37 26 discriminator 4
	movq	-24(%rbp), %rdx
	movq	%rdx, %rdi
	call	*%rax
.LVL0:
	.loc 2 38 1 discriminator 4
	nop
	addq	$24, %rsp
	popq	%rbx
	popq	%rbp
	.cfi_def_cfa 7, 8
	ret
	.cfi_endproc
.LFE1816:
	.size	_Z3Usev, .-_Z3Usev
	.globl	main
	.type	main, @function
main:
.LFB1823:
	.loc 2 40 12
	.cfi_startproc
	pushq	%rbp
	.cfi_def_cfa_offset 16
	.cfi_offset 6, -16
	movq	%rsp, %rbp
	.cfi_def_cfa_register 6
	.loc 2 41 6
	call	_Z3Usev
	.loc 2 42 1
	movl	$0, %eax
	popq	%rbp
	.cfi_def_cfa 7, 8
	ret
	.cfi_endproc
.LFE1823:
	.size	main, .-main
	.section	.text._ZN8FallBackI6MyImplEC2Ev,"axG",@progbits,_ZN8FallBackI6MyImplEC5Ev,comdat
	.align 2
	.weak	_ZN8FallBackI6MyImplEC2Ev
	.type	_ZN8FallBackI6MyImplEC2Ev, @function
_ZN8FallBackI6MyImplEC2Ev:
.LFB2080:
	.loc 2 10 3
	.cfi_startproc
	pushq	%rbp
	.cfi_def_cfa_offset 16
	.cfi_offset 6, -16
	movq	%rsp, %rbp
	.cfi_def_cfa_register 6
	movq	%rdi, -8(%rbp)
.LBB4:
	.loc 2 10 25
	movq	-8(%rbp), %rax
	movq	$_ZN8FallBackI6MyImplE4TestEP4Base, (%rax)
.LBE4:
	.loc 2 10 28
	nop
	popq	%rbp
	.cfi_def_cfa 7, 8
	ret
	.cfi_endproc
.LFE2080:
	.size	_ZN8FallBackI6MyImplEC2Ev, .-_ZN8FallBackI6MyImplEC2Ev
	.weak	_ZN8FallBackI6MyImplEC1Ev
	.set	_ZN8FallBackI6MyImplEC1Ev,_ZN8FallBackI6MyImplEC2Ev
	.section	.text._ZN8FallBackI6MyImplE4TestEP4Base,"axG",@progbits,_ZN8FallBackI6MyImplE4TestEP4Base,comdat
	.align 2
	.weak	_ZN8FallBackI6MyImplE4TestEP4Base
	.type	_ZN8FallBackI6MyImplE4TestEP4Base, @function
_ZN8FallBackI6MyImplE4TestEP4Base:
.LFB2165:
	.loc 2 15 6
	.cfi_startproc
	pushq	%rbp
	.cfi_def_cfa_offset 16
	.cfi_offset 6, -16
	movq	%rsp, %rbp
	.cfi_def_cfa_register 6
	subq	$16, %rsp
	movq	%rdi, -8(%rbp)
	.loc 2 16 3
	cmpq	$0, -8(%rbp)
	je	.L15
	.loc 2 16 3 is_stmt 0 discriminator 1
	movq	-8(%rbp), %rax
	subq	$8, %rax
	jmp	.L16
.L15:
	.loc 2 16 3 discriminator 2
	movl	$0, %eax
.L16:
	.loc 2 16 3 discriminator 4
	movq	%rax, %rdi
	call	_ZN6MyImpl4TestEv
	.loc 2 17 1 is_stmt 1 discriminator 4
	nop
	leave
	.cfi_def_cfa 7, 8
	ret
	.cfi_endproc
.LFE2165:
	.size	_ZN8FallBackI6MyImplE4TestEP4Base, .-_ZN8FallBackI6MyImplE4TestEP4Base
	.weak	_ZTV6MyImpl
	.section	.rodata._ZTV6MyImpl,"aG",@progbits,_ZTV6MyImpl,comdat
	.align 8
	.type	_ZTV6MyImpl, @object
	.size	_ZTV6MyImpl, 24
_ZTV6MyImpl:
	.quad	0
	.quad	_ZTI6MyImpl
	.quad	_ZN6MyImpl5Test2Ev
	.weak	_ZTI6MyImpl
	.section	.rodata._ZTI6MyImpl,"aG",@progbits,_ZTI6MyImpl,comdat
	.align 8
	.type	_ZTI6MyImpl, @object
	.size	_ZTI6MyImpl, 40
_ZTI6MyImpl:
	.quad	_ZTVN10__cxxabiv121__vmi_class_type_infoE+16
	.quad	_ZTS6MyImpl
	.long	0
	.long	1
	.quad	_ZTI8ExternalI6MyImpliE
	.quad	2050
	.weak	_ZTS6MyImpl
	.section	.rodata._ZTS6MyImpl,"aG",@progbits,_ZTS6MyImpl,comdat
	.align 8
	.type	_ZTS6MyImpl, @object
	.size	_ZTS6MyImpl, 8
_ZTS6MyImpl:
	.string	"6MyImpl"
	.text
	.type	_Z41__static_initialization_and_destruction_0ii, @function
_Z41__static_initialization_and_destruction_0ii:
.LFB2305:
	.loc 2 42 1
	.cfi_startproc
	pushq	%rbp
	.cfi_def_cfa_offset 16
	.cfi_offset 6, -16
	movq	%rsp, %rbp
	.cfi_def_cfa_register 6
	subq	$16, %rsp
	movl	%edi, -4(%rbp)
	movl	%esi, -8(%rbp)
	.loc 2 42 1
	cmpl	$1, -4(%rbp)
	jne	.L19
	.loc 2 42 1 is_stmt 0 discriminator 1
	cmpl	$65535, -8(%rbp)
	jne	.L19
	.file 3 "/opt/rh/devtoolset-8/root/usr/include/c++/8/iostream"
	.loc 3 74 25 is_stmt 1
	movl	$_ZStL8__ioinit, %edi
	call	_ZNSt8ios_base4InitC1Ev
	movl	$__dso_handle, %edx
	movl	$_ZStL8__ioinit, %esi
	movl	$_ZNSt8ios_base4InitD1Ev, %edi
	call	__cxa_atexit
.L19:
	.loc 2 42 1
	nop
	leave
	.cfi_def_cfa 7, 8
	ret
	.cfi_endproc
.LFE2305:
	.size	_Z41__static_initialization_and_destruction_0ii, .-_Z41__static_initialization_and_destruction_0ii
	.weak	_ZTI8ExternalI6MyImpliE
	.section	.rodata._ZTI8ExternalI6MyImpliE,"aG",@progbits,_ZTI8ExternalI6MyImpliE,comdat
	.align 8
	.type	_ZTI8ExternalI6MyImpliE, @object
	.size	_ZTI8ExternalI6MyImpliE, 24
_ZTI8ExternalI6MyImpliE:
	.quad	_ZTVN10__cxxabiv120__si_class_type_infoE+16
	.quad	_ZTS8ExternalI6MyImpliE
	.quad	_ZTI8FallBackI6MyImplE
	.weak	_ZTS8ExternalI6MyImpliE
	.section	.rodata._ZTS8ExternalI6MyImpliE,"aG",@progbits,_ZTS8ExternalI6MyImpliE,comdat
	.align 16
	.type	_ZTS8ExternalI6MyImpliE, @object
	.size	_ZTS8ExternalI6MyImpliE, 20
_ZTS8ExternalI6MyImpliE:
	.string	"8ExternalI6MyImpliE"
	.weak	_ZTI8FallBackI6MyImplE
	.section	.rodata._ZTI8FallBackI6MyImplE,"aG",@progbits,_ZTI8FallBackI6MyImplE,comdat
	.align 8
	.type	_ZTI8FallBackI6MyImplE, @object
	.size	_ZTI8FallBackI6MyImplE, 24
_ZTI8FallBackI6MyImplE:
	.quad	_ZTVN10__cxxabiv120__si_class_type_infoE+16
	.quad	_ZTS8FallBackI6MyImplE
	.quad	_ZTI4Base
	.weak	_ZTS8FallBackI6MyImplE
	.section	.rodata._ZTS8FallBackI6MyImplE,"aG",@progbits,_ZTS8FallBackI6MyImplE,comdat
	.align 16
	.type	_ZTS8FallBackI6MyImplE, @object
	.size	_ZTS8FallBackI6MyImplE, 19
_ZTS8FallBackI6MyImplE:
	.string	"8FallBackI6MyImplE"
	.weak	_ZTI4Base
	.section	.rodata._ZTI4Base,"aG",@progbits,_ZTI4Base,comdat
	.align 8
	.type	_ZTI4Base, @object
	.size	_ZTI4Base, 16
_ZTI4Base:
	.quad	_ZTVN10__cxxabiv117__class_type_infoE+16
	.quad	_ZTS4Base
	.weak	_ZTS4Base
	.section	.rodata._ZTS4Base,"aG",@progbits,_ZTS4Base,comdat
	.type	_ZTS4Base, @object
	.size	_ZTS4Base, 6
_ZTS4Base:
	.string	"4Base"
	.text
	.type	_GLOBAL__sub_I__Z3Usev, @function
_GLOBAL__sub_I__Z3Usev:
.LFB2306:
	.loc 2 42 1
	.cfi_startproc
	pushq	%rbp
	.cfi_def_cfa_offset 16
	.cfi_offset 6, -16
	movq	%rsp, %rbp
	.cfi_def_cfa_register 6
	.loc 2 42 1
	movl	$65535, %esi
	movl	$1, %edi
	call	_Z41__static_initialization_and_destruction_0ii
	popq	%rbp
	.cfi_def_cfa 7, 8
	ret
	.cfi_endproc
.LFE2306:
	.size	_GLOBAL__sub_I__Z3Usev, .-_GLOBAL__sub_I__Z3Usev
	.section	.init_array,"aw"
	.align 8
	.quad	_GLOBAL__sub_I__Z3Usev
	.text
.Letext0:
	.file 4 "/usr/include/libio.h"
	.file 5 "/usr/include/stdio.h"
	.file 6 "<built-in>"
	.file 7 "/opt/rh/devtoolset-8/root/usr/lib/gcc/x86_64-redhat-linux/8/include/stddef.h"
	.file 8 "/usr/include/wchar.h"
	.file 9 "/opt/rh/devtoolset-8/root/usr/include/c++/8/cwchar"
	.file 10 "/opt/rh/devtoolset-8/root/usr/include/c++/8/bits/exception_ptr.h"
	.file 11 "/opt/rh/devtoolset-8/root/usr/include/c++/8/x86_64-redhat-linux/bits/c++config.h"
	.file 12 "/opt/rh/devtoolset-8/root/usr/include/c++/8/type_traits"
	.file 13 "/opt/rh/devtoolset-8/root/usr/include/c++/8/bits/stl_pair.h"
	.file 14 "/opt/rh/devtoolset-8/root/usr/include/c++/8/debug/debug.h"
	.file 15 "/opt/rh/devtoolset-8/root/usr/include/c++/8/bits/char_traits.h"
	.file 16 "/opt/rh/devtoolset-8/root/usr/include/c++/8/cstdint"
	.file 17 "/opt/rh/devtoolset-8/root/usr/include/c++/8/clocale"
	.file 18 "/opt/rh/devtoolset-8/root/usr/include/c++/8/bits/allocator.h"
	.file 19 "/opt/rh/devtoolset-8/root/usr/include/c++/8/limits"
	.file 20 "/opt/rh/devtoolset-8/root/usr/include/c++/8/string_view"
	.file 21 "/opt/rh/devtoolset-8/root/usr/include/c++/8/bits/basic_string.h"
	.file 22 "/opt/rh/devtoolset-8/root/usr/include/c++/8/bits/basic_string.tcc"
	.file 23 "/opt/rh/devtoolset-8/root/usr/include/c++/8/cstdlib"
	.file 24 "/opt/rh/devtoolset-8/root/usr/include/c++/8/cstdio"
	.file 25 "/opt/rh/devtoolset-8/root/usr/include/c++/8/initializer_list"
	.file 26 "/opt/rh/devtoolset-8/root/usr/include/c++/8/system_error"
	.file 27 "/opt/rh/devtoolset-8/root/usr/include/c++/8/bits/ios_base.h"
	.file 28 "/opt/rh/devtoolset-8/root/usr/include/c++/8/cwctype"
	.file 29 "/opt/rh/devtoolset-8/root/usr/include/c++/8/istream"
	.file 30 "/opt/rh/devtoolset-8/root/usr/include/c++/8/iosfwd"
	.file 31 "/opt/rh/devtoolset-8/root/usr/include/c++/8/ostream"
	.file 32 "/opt/rh/devtoolset-8/root/usr/include/c++/8/bits/stl_iterator_base_types.h"
	.file 33 "/usr/include/time.h"
	.file 34 "/opt/rh/devtoolset-8/root/usr/include/c++/8/bits/predefined_ops.h"
	.file 35 "/opt/rh/devtoolset-8/root/usr/include/c++/8/ext/new_allocator.h"
	.file 36 "/opt/rh/devtoolset-8/root/usr/include/c++/8/ext/numeric_traits.h"
	.file 37 "/opt/rh/devtoolset-8/root/usr/include/c++/8/bits/stl_iterator.h"
	.file 38 "/usr/include/stdint.h"
	.file 39 "/usr/include/locale.h"
	.file 40 "/usr/include/bits/types.h"
	.file 41 "/opt/rh/devtoolset-8/root/usr/include/c++/8/x86_64-redhat-linux/bits/atomic_word.h"
	.file 42 "/usr/include/stdlib.h"
	.file 43 "/usr/include/_G_config.h"
	.file 44 "/usr/include/bits/sys_errlist.h"
	.file 45 "/usr/include/errno.h"
	.file 46 "/usr/include/wctype.h"
	.section	.note.GNU-stack,"",@progbits
